; Function Attrs: null_pointer_is_valid sspstrong uwtable
define internal i32 @dissect_cms_T_oriValue(i1 zeroext %0, ptr noundef %1, i32 noundef %2, ptr noundef readonly captures(none) %3, ptr noundef %4, i32 %5) #0 {
  %7 = getelementptr inbounds nuw i8, ptr %3, i64 16
  %8 = load ptr, ptr %7, align 8
  %9 = getelementptr inbounds nuw i8, ptr %8, i64 408
  %10 = load ptr, ptr %9, align 8
  %11 = load i32, ptr @proto_cms, align 4
  %12 = tail call ptr @p_get_proto_data(ptr noundef %10, ptr noundef %8, i32 noundef %11, i32 noundef 0)
  %.not.i = icmp eq ptr %12, null
  br i1 %.not.i, label %13, label %cms_get_private_data.exit

13:                                               ; preds = %6
  %14 = load ptr, ptr %9, align 8
  %15 = tail call noalias dereferenceable_or_null(16) ptr @wmem_alloc0(ptr noundef %14, i64 noundef 16) #5
  %16 = load ptr, ptr %9, align 8
  %17 = load i32, ptr @proto_cms, align 4
  tail call void @p_add_proto_data(ptr noundef %16, ptr noundef %8, i32 noundef %17, i32 noundef 0, ptr noundef %15)
  br label %cms_get_private_data.exit

cms_get_private_data.exit:                        ; preds = %6, %13
  %.0.i = phi ptr [ %12, %6 ], [ %15, %13 ]
  %18 = load ptr, ptr %.0.i, align 8
  %19 = load ptr, ptr %7, align 8
  %20 = tail call i32 @call_ber_oid_callback(ptr noundef %18, ptr noundef %1, i32 noundef %2, ptr noundef %19, ptr noundef %4, ptr noundef null)
  ret i32 %20
}